target datalayout = "e-m:e-p270:32:32-p271:32:32-p272:64:64-i64:64-i128:128-f80:128-n8:16:32:64-S128"
target triple = "x86_64-pc-linux-gnu"

%"class.draco::KdTreeAttributesEncoder" = type <{ %"class.draco::AttributesEncoder", %"class.std::vector.0", %"class.std::vector", %"class.std::vector.5", i32, [4 x i8] }>
%"class.draco::AttributesEncoder" = type { ptr, %"class.std::vector", %"class.std::vector", ptr, ptr }
%"class.std::vector.0" = type { %"struct.std::_Vector_base.1" }
%"struct.std::_Vector_base.1" = type { %"struct.std::_Vector_base<draco::AttributeQuantizationTransform, std::allocator<draco::AttributeQuantizationTransform>>::_Vector_impl" }
%"struct.std::_Vector_base<draco::AttributeQuantizationTransform, std::allocator<draco::AttributeQuantizationTransform>>::_Vector_impl" = type { %"struct.std::_Vector_base<draco::AttributeQuantizationTransform, std::allocator<draco::AttributeQuantizationTransform>>::_Vector_impl_data" }
%"struct.std::_Vector_base<draco::AttributeQuantizationTransform, std::allocator<draco::AttributeQuantizationTransform>>::_Vector_impl_data" = type { ptr, ptr, ptr }
%"class.std::vector" = type { %"struct.std::_Vector_base" }
%"struct.std::_Vector_base" = type { %"struct.std::_Vector_base<int, std::allocator<int>>::_Vector_impl" }
%"struct.std::_Vector_base<int, std::allocator<int>>::_Vector_impl" = type { %"struct.std::_Vector_base<int, std::allocator<int>>::_Vector_impl_data" }
%"struct.std::_Vector_base<int, std::allocator<int>>::_Vector_impl_data" = type { ptr, ptr, ptr }
%"class.std::vector.5" = type { %"struct.std::_Vector_base.6" }
%"struct.std::_Vector_base.6" = type { %"struct.std::_Vector_base<std::unique_ptr<draco::PointAttribute>, std::allocator<std::unique_ptr<draco::PointAttribute>>>::_Vector_impl" }
%"struct.std::_Vector_base<std::unique_ptr<draco::PointAttribute>, std::allocator<std::unique_ptr<draco::PointAttribute>>>::_Vector_impl" = type { %"struct.std::_Vector_base<std::unique_ptr<draco::PointAttribute>, std::allocator<std::unique_ptr<draco::PointAttribute>>>::_Vector_impl_data" }
%"struct.std::_Vector_base<std::unique_ptr<draco::PointAttribute>, std::allocator<std::unique_ptr<draco::PointAttribute>>>::_Vector_impl_data" = type { ptr, ptr, ptr }
%"class.draco::AttributeQuantizationTransform" = type <{ %"class.draco::AttributeTransform", i32, [4 x i8], %"class.std::vector.38", float, [4 x i8] }>
%"class.draco::AttributeTransform" = type { ptr }
%"class.std::vector.38" = type { %"struct.std::_Vector_base.39" }
%"struct.std::_Vector_base.39" = type { %"struct.std::_Vector_base<float, std::allocator<float>>::_Vector_impl" }
%"struct.std::_Vector_base<float, std::allocator<float>>::_Vector_impl" = type { %"struct.std::_Vector_base<float, std::allocator<float>>::_Vector_impl_data" }
%"struct.std::_Vector_base<float, std::allocator<float>>::_Vector_impl_data" = type { ptr, ptr, ptr }

; Function Attrs: mustprogress nounwind uwtable
define linkonce_odr noundef i32 @_ZN5draco24ConvertSignedIntToSymbolIiEENSt13make_unsignedIT_E4typeES2_(i32 noundef %0) #5 comdat {
  %2 = alloca i32, align 4
  %3 = alloca i32, align 4
  %4 = alloca i32, align 4
  store i32 %0, ptr %3, align 4, !tbaa !37
  %5 = load i32, ptr %3, align 4, !tbaa !37
  %6 = icmp sge i32 %5, 0
  br i1 %6, label %7, label %10

7:                                                ; preds = %1
  %8 = load i32, ptr %3, align 4, !tbaa !37
  %9 = shl i32 %8, 1
  store i32 %9, ptr %2, align 4
  br label %20

10:                                               ; preds = %1
  %11 = load i32, ptr %3, align 4, !tbaa !37
  %12 = add nsw i32 %11, 1
  %13 = sub nsw i32 0, %12
  store i32 %13, ptr %3, align 4, !tbaa !37
  call void @llvm.lifetime.start.p0(i64 4, ptr %4) #3
  %14 = load i32, ptr %3, align 4, !tbaa !37
  store i32 %14, ptr %4, align 4, !tbaa !37
  %15 = load i32, ptr %4, align 4, !tbaa !37
  %16 = shl i32 %15, 1
  store i32 %16, ptr %4, align 4, !tbaa !37
  %17 = load i32, ptr %4, align 4, !tbaa !37
  %18 = or i32 %17, 1
  store i32 %18, ptr %4, align 4, !tbaa !37
  %19 = load i32, ptr %4, align 4, !tbaa !37
  store i32 %19, ptr %2, align 4
  call void @llvm.lifetime.end.p0(i64 4, ptr %4) #3
  br label %20

20:                                               ; preds = %10, %7
  %21 = load i32, ptr %2, align 4
  ret i32 %21
}

; Function Attrs: mustprogress uwtable
define linkonce_odr noundef zeroext i1 @_ZN5draco12EncodeVarintIiEEbT_PNS_13EncoderBufferE(i32 noundef %0, ptr noundef %1) #4 comdat {
  %3 = alloca i1, align 1
  %4 = alloca i32, align 4
  %5 = alloca ptr, align 8
  %6 = alloca i32, align 4
  %7 = alloca i32, align 4
  store i32 %0, ptr %4, align 4, !tbaa !37
  store ptr %1, ptr %5, align 8, !tbaa !153
  call void @llvm.lifetime.start.p0(i64 4, ptr %6) #3
  %8 = load i32, ptr %4, align 4, !tbaa !37
  %9 = call noundef i32 @_ZN5draco24ConvertSignedIntToSymbolIiEENSt13make_unsignedIT_E4typeES2_(i32 noundef %8)
  store i32 %9, ptr %6, align 4, !tbaa !37
  %10 = load i32, ptr %6, align 4, !tbaa !37
  %11 = load ptr, ptr %5, align 8, !tbaa !153
  %12 = call noundef zeroext i1 @_ZN5draco12EncodeVarintIjEEbT_PNS_13EncoderBufferE(i32 noundef %10, ptr noundef %11)
  br i1 %12, label %14, label %13

13:                                               ; preds = %2
  store i1 false, ptr %3, align 1
  store i32 1, ptr %7, align 4
  br label %15

14:                                               ; preds = %2
  store i32 0, ptr %7, align 4
  br label %15

15:                                               ; preds = %14, %13
  call void @llvm.lifetime.end.p0(i64 4, ptr %6) #3
  %16 = load i32, ptr %7, align 4
  switch i32 %16, label %20 [
    i32 0, label %17
    i32 1, label %18
  ]

17:                                               ; preds = %15
  store i1 true, ptr %3, align 1
  br label %18

18:                                               ; preds = %17, %15
  %19 = load i1, ptr %3, align 1
  ret i1 %19

20:                                               ; preds = %15
  unreachable
}

; Function Attrs: mustprogress nounwind uwtable
define linkonce_odr noundef nonnull align 4 dereferenceable(4) ptr @_ZNSt6vectorIiSaIiEEixEm(ptr noundef nonnull align 8 dereferenceable(24) %0, i64 noundef %1) #5 comdat align 2 {
  %3 = alloca ptr, align 8
  %4 = alloca i64, align 8
  store ptr %0, ptr %3, align 8, !tbaa !33
  store i64 %1, ptr %4, align 8, !tbaa !38
  %5 = load ptr, ptr %3, align 8
  %6 = getelementptr inbounds nuw %"struct.std::_Vector_base", ptr %5, i32 0, i32 0
  %7 = getelementptr inbounds nuw %"struct.std::_Vector_base<int, std::allocator<int>>::_Vector_impl_data", ptr %6, i32 0, i32 0
  %8 = load ptr, ptr %7, align 8, !tbaa !150
  %9 = load i64, ptr %4, align 8, !tbaa !38
  %10 = getelementptr inbounds nuw i32, ptr %8, i64 %9
  ret ptr %10
}

; Function Attrs: mustprogress nounwind uwtable
define linkonce_odr noundef i64 @_ZNKSt6vectorIiSaIiEE4sizeEv(ptr noundef nonnull align 8 dereferenceable(24) %0) #5 comdat align 2 {
  %2 = alloca ptr, align 8
  store ptr %0, ptr %2, align 8, !tbaa !33
  %3 = load ptr, ptr %2, align 8
  %4 = getelementptr inbounds nuw %"struct.std::_Vector_base", ptr %3, i32 0, i32 0
  %5 = getelementptr inbounds nuw %"struct.std::_Vector_base<int, std::allocator<int>>::_Vector_impl_data", ptr %4, i32 0, i32 1
  %6 = load ptr, ptr %5, align 8, !tbaa !151
  %7 = getelementptr inbounds nuw %"struct.std::_Vector_base", ptr %3, i32 0, i32 0
  %8 = getelementptr inbounds nuw %"struct.std::_Vector_base<int, std::allocator<int>>::_Vector_impl_data", ptr %7, i32 0, i32 0
  %9 = load ptr, ptr %8, align 8, !tbaa !150
  %10 = ptrtoint ptr %6 to i64
  %11 = ptrtoint ptr %9 to i64
  %12 = sub i64 %10, %11
  %13 = sdiv exact i64 %12, 4
  ret i64 %13
}

; Function Attrs: mustprogress nounwind uwtable
define linkonce_odr noundef nonnull align 8 dereferenceable(44) ptr @_ZNSt6vectorIN5draco30AttributeQuantizationTransformESaIS1_EEixEm(ptr noundef nonnull align 8 dereferenceable(24) %0, i64 noundef %1) #5 comdat align 2 {
  %3 = alloca ptr, align 8
  %4 = alloca i64, align 8
  store ptr %0, ptr %3, align 8, !tbaa !31
  store i64 %1, ptr %4, align 8, !tbaa !38
  %5 = load ptr, ptr %3, align 8
  %6 = getelementptr inbounds nuw %"struct.std::_Vector_base.1", ptr %5, i32 0, i32 0
  %7 = getelementptr inbounds nuw %"struct.std::_Vector_base<draco::AttributeQuantizationTransform, std::allocator<draco::AttributeQuantizationTransform>>::_Vector_impl_data", ptr %6, i32 0, i32 0
  %8 = load ptr, ptr %7, align 8, !tbaa !156
  %9 = load i64, ptr %4, align 8, !tbaa !38
  %10 = getelementptr inbounds nuw %"class.draco::AttributeQuantizationTransform", ptr %8, i64 %9
  ret ptr %10
}

; Function Attrs: mustprogress nounwind uwtable
define linkonce_odr noundef i64 @_ZNKSt6vectorIN5draco30AttributeQuantizationTransformESaIS1_EE4sizeEv(ptr noundef nonnull align 8 dereferenceable(24) %0) #5 comdat align 2 {
  %2 = alloca ptr, align 8
  store ptr %0, ptr %2, align 8, !tbaa !31
  %3 = load ptr, ptr %2, align 8
  %4 = getelementptr inbounds nuw %"struct.std::_Vector_base.1", ptr %3, i32 0, i32 0
  %5 = getelementptr inbounds nuw %"struct.std::_Vector_base<draco::AttributeQuantizationTransform, std::allocator<draco::AttributeQuantizationTransform>>::_Vector_impl_data", ptr %4, i32 0, i32 1
  %6 = load ptr, ptr %5, align 8, !tbaa !113
  %7 = getelementptr inbounds nuw %"struct.std::_Vector_base.1", ptr %3, i32 0, i32 0
  %8 = getelementptr inbounds nuw %"struct.std::_Vector_base<draco::AttributeQuantizationTransform, std::allocator<draco::AttributeQuantizationTransform>>::_Vector_impl_data", ptr %7, i32 0, i32 0
  %9 = load ptr, ptr %8, align 8, !tbaa !156
  %10 = ptrtoint ptr %6 to i64
  %11 = ptrtoint ptr %9 to i64
  %12 = sub i64 %10, %11
  %13 = sdiv exact i64 %12, 48
  ret i64 %13
}

; Function Attrs: mustprogress uwtable
define noundef zeroext i1 @_ZN5draco23KdTreeAttributesEncoder36EncodeDataNeededByPortableTransformsEPNS_13EncoderBufferE(ptr noundef nonnull align 8 dereferenceable(148) %0, ptr noundef %1) unnamed_addr #4 align 2 {
  %3 = alloca ptr, align 8
  %4 = alloca ptr, align 8
  %5 = alloca i32, align 4
  %6 = alloca i32, align 4
  store ptr %0, ptr %3, align 8, !tbaa !3
  store ptr %1, ptr %4, align 8, !tbaa !153
  %7 = load ptr, ptr %3, align 8
  call void @llvm.lifetime.start.p0(i64 4, ptr %5) #3
  store i32 0, ptr %5, align 4, !tbaa !37
  br label %8

8:                                                ; preds = %25, %2
  %9 = load i32, ptr %5, align 4, !tbaa !37
  %10 = sext i32 %9 to i64
  %11 = getelementptr inbounds nuw %"class.draco::KdTreeAttributesEncoder", ptr %7, i32 0, i32 1
  %12 = call noundef i64 @_ZNKSt6vectorIN5draco30AttributeQuantizationTransformESaIS1_EE4sizeEv(ptr noundef nonnull align 8 dereferenceable(24) %11) #3
  %13 = icmp ult i64 %10, %12
  br i1 %13, label %15, label %14

14:                                               ; preds = %8
  call void @llvm.lifetime.end.p0(i64 4, ptr %5) #3
  br label %28

15:                                               ; preds = %8
  %16 = getelementptr inbounds nuw %"class.draco::KdTreeAttributesEncoder", ptr %7, i32 0, i32 1
  %17 = load i32, ptr %5, align 4, !tbaa !37
  %18 = sext i32 %17 to i64
  %19 = call noundef nonnull align 8 dereferenceable(44) ptr @_ZNSt6vectorIN5draco30AttributeQuantizationTransformESaIS1_EEixEm(ptr noundef nonnull align 8 dereferenceable(24) %16, i64 noundef %18) #3
  %20 = load ptr, ptr %4, align 8, !tbaa !153
  %21 = load ptr, ptr %19, align 8, !tbaa !8
  %22 = getelementptr inbounds ptr, ptr %21, i64 7
  %23 = load ptr, ptr %22, align 8
  %24 = call noundef zeroext i1 %23(ptr noundef nonnull align 8 dereferenceable(44) %19, ptr noundef %20)
  br label %25

25:                                               ; preds = %15
  %26 = load i32, ptr %5, align 4, !tbaa !37
  %27 = add nsw i32 %26, 1
  store i32 %27, ptr %5, align 4, !tbaa !37
  br label %8, !llvm.loop !154

28:                                               ; preds = %14
  call void @llvm.lifetime.start.p0(i64 4, ptr %6) #3
  store i32 0, ptr %6, align 4, !tbaa !37
  br label %29

29:                                               ; preds = %44, %28
  %30 = load i32, ptr %6, align 4, !tbaa !37
  %31 = sext i32 %30 to i64
  %32 = getelementptr inbounds nuw %"class.draco::KdTreeAttributesEncoder", ptr %7, i32 0, i32 2
  %33 = call noundef i64 @_ZNKSt6vectorIiSaIiEE4sizeEv(ptr noundef nonnull align 8 dereferenceable(24) %32) #3
  %34 = icmp ult i64 %31, %33
  br i1 %34, label %36, label %35

35:                                               ; preds = %29
  call void @llvm.lifetime.end.p0(i64 4, ptr %6) #3
  br label %47

36:                                               ; preds = %29
  %37 = getelementptr inbounds nuw %"class.draco::KdTreeAttributesEncoder", ptr %7, i32 0, i32 2
  %38 = load i32, ptr %6, align 4, !tbaa !37
  %39 = sext i32 %38 to i64
  %40 = call noundef nonnull align 4 dereferenceable(4) ptr @_ZNSt6vectorIiSaIiEEixEm(ptr noundef nonnull align 8 dereferenceable(24) %37, i64 noundef %39) #3
  %41 = load i32, ptr %40, align 4, !tbaa !37
  %42 = load ptr, ptr %4, align 8, !tbaa !153
  %43 = call noundef zeroext i1 @_ZN5draco12EncodeVarintIiEEbT_PNS_13EncoderBufferE(i32 noundef %41, ptr noundef %42)
  br label %44

44:                                               ; preds = %36
  %45 = load i32, ptr %6, align 4, !tbaa !37
  %46 = add nsw i32 %45, 1
  store i32 %46, ptr %6, align 4, !tbaa !37
  br label %29, !llvm.loop !155

47:                                               ; preds = %35
  ret i1 true
}