; Function Attrs: mustprogress uwtable
define noundef zeroext i1 @_ZN5draco23KdTreeAttributesEncoder36EncodeDataNeededByPortableTransformsEPNS_13EncoderBufferE(ptr noundef nonnull readonly align 8 captures(none) dereferenceable(148) %0, ptr noundef %1) unnamed_addr #3 align 2 {
  %3 = getelementptr inbounds nuw i8, ptr %0, i64 72
  %4 = getelementptr inbounds nuw i8, ptr %0, i64 80
  %5 = load ptr, ptr %4, align 8, !tbaa !84
  %6 = load ptr, ptr %3, align 8, !tbaa !139
  %.not = icmp eq ptr %5, %6
  br i1 %.not, label %.preheader, label %.lr.ph

.preheader:                                       ; preds = %.lr.ph, %2
  %7 = getelementptr inbounds nuw i8, ptr %0, i64 96
  %8 = getelementptr inbounds nuw i8, ptr %0, i64 104
  %9 = load ptr, ptr %8, align 8, !tbaa !42
  %10 = load ptr, ptr %7, align 8, !tbaa !43
  %.not14 = icmp eq ptr %9, %10
  br i1 %.not14, label %._crit_edge, label %.lr.ph13

.lr.ph:                                           ; preds = %2, %.lr.ph
  %indvars.iv = phi i64 [ %indvars.iv.next, %.lr.ph ], [ 0, %2 ]
  %11 = phi ptr [ %18, %.lr.ph ], [ %6, %2 ]
  %12 = getelementptr inbounds nuw %"class.draco::AttributeQuantizationTransform", ptr %11, i64 %indvars.iv
  %13 = load ptr, ptr %12, align 8, !tbaa !3
  %14 = getelementptr inbounds nuw i8, ptr %13, i64 56
  %15 = load ptr, ptr %14, align 8
  %16 = tail call noundef zeroext i1 %15(ptr noundef nonnull align 8 dereferenceable(44) %12, ptr noundef %1)
  %indvars.iv.next = add nuw nsw i64 %indvars.iv, 1
  %17 = load ptr, ptr %4, align 8, !tbaa !84
  %18 = load ptr, ptr %3, align 8, !tbaa !139
  %19 = ptrtoint ptr %17 to i64
  %20 = ptrtoint ptr %18 to i64
  %21 = sub i64 %19, %20
  %22 = sdiv exact i64 %21, 48
  %23 = icmp ugt i64 %22, %indvars.iv.next
  br i1 %23, label %.lr.ph, label %.preheader, !llvm.loop !140

._crit_edge:                                      ; preds = %.lr.ph13, %.preheader
  ret i1 true

.lr.ph13:                                         ; preds = %.preheader, %.lr.ph13
  %indvars.iv16 = phi i64 [ %indvars.iv.next17, %.lr.ph13 ], [ 0, %.preheader ]
  %24 = phi ptr [ %34, %.lr.ph13 ], [ %10, %.preheader ]
  %25 = getelementptr inbounds nuw i32, ptr %24, i64 %indvars.iv16
  %26 = load i32, ptr %25, align 4, !tbaa !52
  %27 = shl nuw i32 %26, 1
  %28 = xor i32 %26, -1
  %29 = shl nuw i32 %28, 1
  %30 = or disjoint i32 %29, 1
  %31 = icmp slt i32 %26, 0
  %.0.i.i = select i1 %31, i32 %30, i32 %27
  %32 = tail call noundef zeroext i1 @_ZN5draco12EncodeVarintIjEEbT_PNS_13EncoderBufferE(i32 noundef %.0.i.i, ptr noundef %1)
  %indvars.iv.next17 = add nuw nsw i64 %indvars.iv16, 1
  %33 = load ptr, ptr %8, align 8, !tbaa !42
  %34 = load ptr, ptr %7, align 8, !tbaa !43
  %35 = ptrtoint ptr %33 to i64
  %36 = ptrtoint ptr %34 to i64
  %37 = sub i64 %35, %36
  %38 = ashr exact i64 %37, 2
  %39 = icmp ugt i64 %38, %indvars.iv.next17
  br i1 %39, label %.lr.ph13, label %._crit_edge, !llvm.loop !141
}